target datalayout = "e-m:e-p270:32:32-p271:32:32-p272:64:64-i64:64-i128:128-f80:128-n8:16:32:64-S128"
target triple = "x86_64-pc-linux-gnu"

%struct.SDL_HashTable = type { ptr, ptr, ptr, ptr, ptr, ptr, i32, i32, i32 }

@.str = private unnamed_addr constant [26 x i8] c"Parameter '%s' is invalid\00", align 1
@.str.1 = private unnamed_addr constant [6 x i8] c"table\00", align 1

; Function Attrs: nounwind uwtable
define hidden zeroext i1 @SDL_HashTableEmpty(ptr noundef %0) #0 {
  %2 = alloca i1, align 1
  %3 = alloca ptr, align 8
  %4 = alloca i8, align 1
  store ptr %0, ptr %3, align 8
  %5 = load ptr, ptr %3, align 8
  %6 = icmp ne ptr %5, null
  br i1 %6, label %9, label %7

7:                                                ; preds = %1
  %8 = call zeroext i1 (ptr, ...) @SDL_SetError_REAL(ptr noundef @.str, ptr noundef @.str.1)
  store i1 %8, ptr %2, align 1
  br label %23

9:                                                ; preds = %1
  %10 = load ptr, ptr %3, align 8
  %11 = getelementptr inbounds nuw %struct.SDL_HashTable, ptr %10, i32 0, i32 0
  %12 = load ptr, ptr %11, align 8
  call void @SDL_LockRWLockForReading_REAL(ptr noundef %12)
  call void @llvm.lifetime.start.p0(i64 1, ptr %4) #9
  %13 = load ptr, ptr %3, align 8
  %14 = getelementptr inbounds nuw %struct.SDL_HashTable, ptr %13, i32 0, i32 8
  %15 = load i32, ptr %14, align 8
  %16 = icmp eq i32 %15, 0
  %17 = zext i1 %16 to i8
  store i8 %17, ptr %4, align 1
  %18 = load ptr, ptr %3, align 8
  %19 = getelementptr inbounds nuw %struct.SDL_HashTable, ptr %18, i32 0, i32 0
  %20 = load ptr, ptr %19, align 8
  call void @SDL_UnlockRWLock_REAL(ptr noundef %20)
  %21 = load i8, ptr %4, align 1, !range !3, !noundef !4
  %22 = trunc i8 %21 to i1
  store i1 %22, ptr %2, align 1
  call void @llvm.lifetime.end.p0(i64 1, ptr %4) #9
  br label %23

23:                                               ; preds = %9, %7
  %24 = load i1, ptr %2, align 1
  ret i1 %24
}