; Function Attrs: nounwind uwtable
define hidden zeroext i1 @SDL_HashTableEmpty(ptr noundef readonly captures(address_is_null) %0) local_unnamed_addr #0 {
  %.not = icmp eq ptr %0, null
  br i1 %.not, label %2, label %4

2:                                                ; preds = %1
  %3 = tail call zeroext i1 (ptr, ...) @SDL_SetError_REAL(ptr noundef nonnull @.str, ptr noundef nonnull @.str.1) #10
  br label %10

4:                                                ; preds = %1
  %5 = load ptr, ptr %0, align 8
  tail call void @SDL_LockRWLockForReading_REAL(ptr noundef %5) #10
  %6 = getelementptr inbounds nuw i8, ptr %0, i64 56
  %7 = load i32, ptr %6, align 8
  %8 = icmp eq i32 %7, 0
  %9 = load ptr, ptr %0, align 8
  tail call void @SDL_UnlockRWLock_REAL(ptr noundef %9) #10
  br label %10

10:                                               ; preds = %4, %2
  %.0 = phi i1 [ %8, %4 ], [ %3, %2 ]
  ret i1 %.0
}